target datalayout = "e-m:e-p270:32:32-p271:32:32-p272:64:64-i64:64-i128:128-f80:128-n8:16:32:64-S128"
target triple = "x86_64-pc-linux-gnu"

%struct.Wlc_Ntk_t_ = type { ptr, ptr, %struct.Vec_Int_t_, %struct.Vec_Int_t_, %struct.Vec_Int_t_, %struct.Vec_Int_t_, %struct.Vec_Int_t_, %struct.Vec_Int_t_, ptr, ptr, ptr, [60 x i32], [60 x i32], i32, i32, i32, i32, i32, ptr, i32, i32, ptr, ptr, ptr, ptr, ptr, %struct.Vec_Int_t_, %struct.Vec_Int_t_, i32, %struct.Vec_Int_t_, %struct.Vec_Int_t_, %struct.Vec_Int_t_, %struct.Vec_Int_t_, %struct.Vec_Int_t_, %struct.Vec_Int_t_ }
%struct.Vec_Int_t_ = type { i32, i32, ptr }

; Function Attrs: nounwind uwtable
define void @Wlc_ObjUpdateType(ptr noundef %0, ptr noundef %1, i32 noundef %2) #0 {
  %4 = alloca ptr, align 8
  %5 = alloca ptr, align 8
  %6 = alloca i32, align 4
  store ptr %0, ptr %4, align 8
  store ptr %1, ptr %5, align 8
  store i32 %2, ptr %6, align 4
  %7 = load ptr, ptr %4, align 8
  %8 = getelementptr inbounds %struct.Wlc_Ntk_t_, ptr %7, i32 0, i32 11
  %9 = load ptr, ptr %5, align 8
  %10 = load i16, ptr %9, align 8
  %11 = and i16 %10, 63
  %12 = zext i16 %11 to i32
  %13 = zext i32 %12 to i64
  %14 = getelementptr inbounds [60 x i32], ptr %8, i64 0, i64 %13
  %15 = load i32, ptr %14, align 4
  %16 = add nsw i32 %15, -1
  store i32 %16, ptr %14, align 4
  %17 = load i32, ptr %6, align 4
  %18 = load ptr, ptr %5, align 8
  %19 = trunc i32 %17 to i16
  %20 = load i16, ptr %18, align 8
  %21 = and i16 %19, 63
  %22 = and i16 %20, -64
  %23 = or i16 %22, %21
  store i16 %23, ptr %18, align 8
  %24 = load ptr, ptr %4, align 8
  %25 = getelementptr inbounds %struct.Wlc_Ntk_t_, ptr %24, i32 0, i32 11
  %26 = load ptr, ptr %5, align 8
  %27 = load i16, ptr %26, align 8
  %28 = and i16 %27, 63
  %29 = zext i16 %28 to i32
  %30 = zext i32 %29 to i64
  %31 = getelementptr inbounds [60 x i32], ptr %25, i64 0, i64 %30
  %32 = load i32, ptr %31, align 4
  %33 = add nsw i32 %32, 1
  store i32 %33, ptr %31, align 4
  ret void
}