; Function Attrs: mustprogress nofree norecurse nosync nounwind willreturn memory(argmem: readwrite) uwtable
define void @Wlc_ObjUpdateType(ptr noundef captures(none) %0, ptr noundef captures(none) %1, i32 noundef %2) local_unnamed_addr #10 {
  %4 = getelementptr inbounds nuw i8, ptr %0, i64 136
  %5 = load i16, ptr %1, align 8
  %6 = and i16 %5, 63
  %7 = zext nneg i16 %6 to i64
  %8 = getelementptr inbounds nuw [60 x i32], ptr %4, i64 0, i64 %7
  %9 = load i32, ptr %8, align 4
  %10 = add nsw i32 %9, -1
  store i32 %10, ptr %8, align 4
  %11 = trunc i32 %2 to i16
  %12 = load i16, ptr %1, align 8
  %13 = and i16 %11, 63
  %14 = and i16 %12, -64
  %15 = or disjoint i16 %14, %13
  store i16 %15, ptr %1, align 8
  %16 = and i32 %2, 63
  %17 = zext nneg i32 %16 to i64
  %18 = getelementptr inbounds nuw [60 x i32], ptr %4, i64 0, i64 %17
  %19 = load i32, ptr %18, align 4
  %20 = add nsw i32 %19, 1
  store i32 %20, ptr %18, align 4
  ret void
}